; Function Attrs: nounwind uwtable
define dso_local i64 @dsynonym_lexize(ptr noundef readonly captures(none) %0) local_unnamed_addr #0 {
  %2 = getelementptr inbounds nuw i8, ptr %0, i64 32
  %3 = load i64, ptr %2, align 8
  %4 = inttoptr i64 %3 to ptr
  %5 = getelementptr inbounds nuw i8, ptr %0, i64 48
  %6 = load i64, ptr %5, align 8
  %7 = inttoptr i64 %6 to ptr
  %8 = getelementptr inbounds nuw i8, ptr %0, i64 64
  %9 = load i64, ptr %8, align 8
  %10 = trunc i64 %9 to i32
  %11 = icmp slt i32 %10, 1
  br i1 %11, label %55, label %12

12:                                               ; preds = %1
  %13 = load i32, ptr %4, align 8
  %14 = icmp slt i32 %13, 1
  br i1 %14, label %55, label %15

15:                                               ; preds = %12
  %16 = getelementptr inbounds nuw i8, ptr %4, i64 16
  %17 = load i8, ptr %16, align 8, !range !8, !noundef !9
  %18 = trunc nuw i8 %17 to i1
  %19 = and i64 %9, 2147483647
  br i1 %18, label %20, label %22

20:                                               ; preds = %15
  %21 = tail call ptr @pnstrdup(ptr noundef %7, i64 noundef %19) #8
  br label %24

22:                                               ; preds = %15
  %23 = tail call ptr @str_tolower(ptr noundef %7, i64 noundef %19, i32 noundef 100) #8
  br label %24

24:                                               ; preds = %22, %20
  %storemerge = phi ptr [ %23, %22 ], [ %21, %20 ]
  %25 = getelementptr inbounds nuw i8, ptr %4, i64 8
  %26 = load ptr, ptr %25, align 8
  %27 = load i32, ptr %4, align 8
  %.not24.i = icmp eq i32 %27, 0
  br i1 %.not24.i, label %.loopexit, label %.lr.ph.i.preheader

.lr.ph.i.preheader:                               ; preds = %24
  %28 = sext i32 %27 to i64
  br label %.lr.ph.i

.lr.ph.i:                                         ; preds = %.lr.ph.i.preheader, %39
  %.01621.i = phi i64 [ %.1.i, %39 ], [ 0, %.lr.ph.i.preheader ]
  %.01720.i = phi i64 [ %.118.i, %39 ], [ %28, %.lr.ph.i.preheader ]
  %29 = add i64 %.01720.i, %.01621.i
  %30 = lshr i64 %29, 1
  %31 = mul i64 %30, 24
  %32 = getelementptr inbounds nuw i8, ptr %26, i64 %31
  %33 = load ptr, ptr %32, align 8
  %34 = tail call i32 @strcmp(ptr noundef nonnull dereferenceable(1) %storemerge, ptr noundef nonnull dereferenceable(1) %33) #9
  %35 = icmp slt i32 %34, 0
  br i1 %35, label %39, label %36

36:                                               ; preds = %.lr.ph.i
  %.not.i = icmp eq i32 %34, 0
  br i1 %.not.i, label %41, label %37

37:                                               ; preds = %36
  %38 = add nuw i64 %30, 1
  br label %39

39:                                               ; preds = %37, %.lr.ph.i
  %.118.i = phi i64 [ %.01720.i, %37 ], [ %30, %.lr.ph.i ]
  %.1.i = phi i64 [ %38, %37 ], [ %.01621.i, %.lr.ph.i ]
  %40 = icmp ult i64 %.1.i, %.118.i
  br i1 %40, label %.lr.ph.i, label %.loopexit, !llvm.loop !10

.loopexit:                                        ; preds = %39, %24
  tail call void @pfree(ptr noundef %storemerge) #8
  br label %55

41:                                               ; preds = %36
  %42 = getelementptr inbounds nuw i8, ptr %26, i64 %31
  tail call void @pfree(ptr noundef nonnull %storemerge) #8
  %43 = tail call ptr @palloc0(i64 noundef 32) #8
  %44 = getelementptr inbounds nuw i8, ptr %42, i64 8
  %45 = load ptr, ptr %44, align 8
  %46 = getelementptr inbounds nuw i8, ptr %42, i64 16
  %47 = load i32, ptr %46, align 8
  %48 = sext i32 %47 to i64
  %49 = tail call ptr @pnstrdup(ptr noundef %45, i64 noundef %48) #8
  %50 = getelementptr inbounds nuw i8, ptr %43, i64 8
  store ptr %49, ptr %50, align 8
  %51 = getelementptr inbounds nuw i8, ptr %42, i64 20
  %52 = load i16, ptr %51, align 4
  %53 = getelementptr inbounds nuw i8, ptr %43, i64 2
  store i16 %52, ptr %53, align 2
  %54 = ptrtoint ptr %43 to i64
  br label %55

55:                                               ; preds = %1, %12, %41, %.loopexit
  %.0 = phi i64 [ %54, %41 ], [ 0, %.loopexit ], [ 0, %12 ], [ 0, %1 ]
  ret i64 %.0
}